target datalayout = "e-m:e-p270:32:32-p271:32:32-p272:64:64-i64:64-i128:128-f80:128-n8:16:32:64-S128"
target triple = "x86_64-pc-linux-gnu"

%struct.WOLFSSL = type <{ ptr, ptr, ptr, ptr, [48 x i8], [48 x i8], ptr, ptr, ptr, ptr, ptr, ptr, ptr, ptr, ptr, ptr, ptr, ptr, ptr, i32, [4 x i8], %struct.WOLFSSL_CIPHER, ptr, %struct.Ciphers, %struct.Ciphers, [8 x i8], %struct.Buffers, ptr, ptr, %struct.WOLFSSL_ALERT_HISTORY, %struct.WOLFSSL_ALERT, i32, i32, i32, i32, i32, i32, i32, i16, [2 x i8], i32, i8, %struct.RecordLayerHeader, %struct.MsgsReceived, %struct.ProtocolVersion, %struct.ProtocolVersion, %struct.CipherSpecs, [2 x i8], %struct.Keys, %struct.Options, ptr, i8, i8, i16, [10 x i16], i8, i8, i16, i16, [38 x i8], i32, i32, [4 x i8], ptr, i8, i8, [6 x i8], ptr, ptr, i16, i8, i8, i32, i8, [3 x i8], i32, %struct.OneTimeAuth, ptr }>
%struct.WOLFSSL_CIPHER = type { i8, i8, ptr }
%struct.Ciphers = type { ptr, ptr, ptr, ptr, i8, i8 }
%struct.Buffers = type { %struct.bufferStatic, %struct.bufferStatic, %struct.WOLFSSL_BUFFER_INFO, %struct.WOLFSSL_BUFFER_INFO, %struct.WOLFSSL_BUFFER_INFO, %struct.WOLFSSL_BUFFER_INFO, i32, i32, i8, i8, i8, i8, %struct.WOLFSSL_BUFFER_INFO, %struct.WOLFSSL_BUFFER_INFO, %struct.WOLFSSL_BUFFER_INFO, %struct.WOLFSSL_BUFFER_INFO, ptr, ptr, ptr, i8, i8, i32, i32, ptr, i32, [1 x ptr] }
%struct.bufferStatic = type { [5 x i8], ptr, i32, i32, i32, i8, i8 }
%struct.WOLFSSL_BUFFER_INFO = type { ptr, i32 }
%struct.WOLFSSL_ALERT_HISTORY = type { %struct.WOLFSSL_ALERT, %struct.WOLFSSL_ALERT }
%struct.WOLFSSL_ALERT = type { i32, i32 }
%struct.RecordLayerHeader = type { i8, i8, i8, [2 x i8] }
%struct.MsgsReceived = type { i32 }
%struct.ProtocolVersion = type { i8, i8 }
%struct.CipherSpecs = type { i16, i16, i16, i16, i8, i8, i8, i8, i8, i8, i8, i8 }
%struct.Keys = type { [64 x i8], [64 x i8], [32 x i8], [32 x i8], [16 x i8], [16 x i8], [8 x i8], [12 x i8], [12 x i8], i32, i32, i32, i32, i32, i32, i8, i8, i8, i8 }
%struct.Options = type { i64, i64, i8, i8, i8, i8, i8, i8, i8, i8, i8, i8, i8, i8, i8, i8, i8, i8, i8, i8, i8, i8, i8, i16, i16, i16, i16, i16, i8 }
%struct.OneTimeAuth = type { ptr, i8 }

; Function Attrs: inlinehint nounwind uwtable
define internal void @c16toa(i16 noundef zeroext %0, ptr noundef %1) #5 {
  %3 = alloca i16, align 2
  %4 = alloca ptr, align 8
  store i16 %0, ptr %3, align 2, !tbaa !119
  store ptr %1, ptr %4, align 8, !tbaa !89
  %5 = load i16, ptr %3, align 2, !tbaa !119
  %6 = zext i16 %5 to i32
  %7 = ashr i32 %6, 8
  %8 = and i32 %7, 255
  %9 = trunc i32 %8 to i8
  %10 = load ptr, ptr %4, align 8, !tbaa !89
  %11 = getelementptr inbounds i8, ptr %10, i64 0
  store i8 %9, ptr %11, align 1, !tbaa !54
  %12 = load i16, ptr %3, align 2, !tbaa !119
  %13 = zext i16 %12 to i32
  %14 = and i32 %13, 255
  %15 = trunc i32 %14 to i8
  %16 = load ptr, ptr %4, align 8, !tbaa !89
  %17 = getelementptr inbounds i8, ptr %16, i64 1
  store i8 %15, ptr %17, align 1, !tbaa !54
  ret void
}

; Function Attrs: nounwind uwtable
define i32 @IsAtLeastTLSv1_3(i16 %0) #0 {
  %2 = alloca %struct.ProtocolVersion, align 1
  %3 = alloca i32, align 4
  store i16 %0, ptr %2, align 1
  call void @llvm.lifetime.start.p0(i64 4, ptr %3) #9
  %4 = getelementptr inbounds nuw %struct.ProtocolVersion, ptr %2, i32 0, i32 0
  %5 = load i8, ptr %4, align 1, !tbaa !45
  %6 = zext i8 %5 to i32
  %7 = icmp eq i32 %6, 3
  br i1 %7, label %8, label %13

8:                                                ; preds = %1
  %9 = getelementptr inbounds nuw %struct.ProtocolVersion, ptr %2, i32 0, i32 1
  %10 = load i8, ptr %9, align 1, !tbaa !46
  %11 = zext i8 %10 to i32
  %12 = icmp sge i32 %11, 4
  br label %13

13:                                               ; preds = %8, %1
  %14 = phi i1 [ false, %1 ], [ %12, %8 ]
  %15 = zext i1 %14 to i32
  store i32 %15, ptr %3, align 4, !tbaa !47
  %16 = load i32, ptr %3, align 4, !tbaa !47
  call void @llvm.lifetime.end.p0(i64 4, ptr %3) #9
  ret i32 %16
}

; Function Attrs: nounwind uwtable
define internal void @AddRecordHeader(ptr noundef %0, i32 noundef %1, i8 noundef zeroext %2, ptr noundef %3, i32 noundef %4) #0 {
  %6 = alloca ptr, align 8
  %7 = alloca i32, align 4
  %8 = alloca i8, align 1
  %9 = alloca ptr, align 8
  %10 = alloca i32, align 4
  %11 = alloca ptr, align 8
  %12 = alloca i32, align 4
  store ptr %0, ptr %6, align 8, !tbaa !89
  store i32 %1, ptr %7, align 4, !tbaa !47
  store i8 %2, ptr %8, align 1, !tbaa !54
  store ptr %3, ptr %9, align 8, !tbaa !3
  store i32 %4, ptr %10, align 4, !tbaa !47
  call void @llvm.lifetime.start.p0(i64 8, ptr %11) #9
  %13 = load ptr, ptr %6, align 8, !tbaa !89
  store ptr %13, ptr %11, align 8, !tbaa !420
  %14 = load ptr, ptr %11, align 8, !tbaa !420
  %15 = icmp eq ptr %14, null
  br i1 %15, label %16, label %17

16:                                               ; preds = %5
  store i32 1, ptr %12, align 4
  br label %59

17:                                               ; preds = %5
  %18 = load i8, ptr %8, align 1, !tbaa !54
  %19 = load ptr, ptr %11, align 8, !tbaa !420
  %20 = getelementptr inbounds nuw %struct.RecordLayerHeader, ptr %19, i32 0, i32 0
  store i8 %18, ptr %20, align 1, !tbaa !422
  %21 = load ptr, ptr %9, align 8, !tbaa !3
  %22 = getelementptr inbounds nuw %struct.WOLFSSL, ptr %21, i32 0, i32 44
  %23 = getelementptr inbounds nuw %struct.ProtocolVersion, ptr %22, i32 0, i32 0
  %24 = load i8, ptr %23, align 2, !tbaa !8
  %25 = load ptr, ptr %11, align 8, !tbaa !420
  %26 = getelementptr inbounds nuw %struct.RecordLayerHeader, ptr %25, i32 0, i32 1
  store i8 %24, ptr %26, align 1, !tbaa !423
  %27 = load ptr, ptr %9, align 8, !tbaa !3
  %28 = getelementptr inbounds nuw %struct.WOLFSSL, ptr %27, i32 0, i32 44
  %29 = load i16, ptr %28, align 2
  %30 = call i32 @IsAtLeastTLSv1_3(i16 %29)
  %31 = icmp ne i32 %30, 0
  br i1 %31, label %32, label %35

32:                                               ; preds = %17
  %33 = load ptr, ptr %11, align 8, !tbaa !420
  %34 = getelementptr inbounds nuw %struct.RecordLayerHeader, ptr %33, i32 0, i32 2
  store i8 3, ptr %34, align 1, !tbaa !424
  br label %42

35:                                               ; preds = %17
  %36 = load ptr, ptr %9, align 8, !tbaa !3
  %37 = getelementptr inbounds nuw %struct.WOLFSSL, ptr %36, i32 0, i32 44
  %38 = getelementptr inbounds nuw %struct.ProtocolVersion, ptr %37, i32 0, i32 1
  %39 = load i8, ptr %38, align 1, !tbaa !44
  %40 = load ptr, ptr %11, align 8, !tbaa !420
  %41 = getelementptr inbounds nuw %struct.RecordLayerHeader, ptr %40, i32 0, i32 2
  store i8 %39, ptr %41, align 1, !tbaa !424
  br label %42

42:                                               ; preds = %35, %32
  %43 = load ptr, ptr %9, align 8, !tbaa !3
  %44 = getelementptr inbounds nuw %struct.WOLFSSL, ptr %43, i32 0, i32 49
  %45 = getelementptr inbounds nuw %struct.Options, ptr %44, i32 0, i32 1
  %46 = load i64, ptr %45, align 8
  %47 = lshr i64 %46, 17
  %48 = and i64 %47, 1
  %49 = trunc i64 %48 to i16
  %50 = icmp ne i16 %49, 0
  br i1 %50, label %57, label %51

51:                                               ; preds = %42
  %52 = load i32, ptr %7, align 4, !tbaa !47
  %53 = trunc i32 %52 to i16
  %54 = load ptr, ptr %11, align 8, !tbaa !420
  %55 = getelementptr inbounds nuw %struct.RecordLayerHeader, ptr %54, i32 0, i32 3
  %56 = getelementptr inbounds [2 x i8], ptr %55, i64 0, i64 0
  call void @c16toa(i16 noundef zeroext %53, ptr noundef %56)
  br label %58

57:                                               ; preds = %42
  br label %58

58:                                               ; preds = %57, %51
  store i32 0, ptr %12, align 4
  br label %59

59:                                               ; preds = %58, %16
  call void @llvm.lifetime.end.p0(i64 8, ptr %11) #9
  %60 = load i32, ptr %12, align 4
  switch i32 %60, label %62 [
    i32 0, label %61
    i32 1, label %61
  ]

61:                                               ; preds = %59, %59
  ret void

62:                                               ; preds = %59
  unreachable
}