; Function Attrs: mustprogress nofree norecurse nosync nounwind willreturn memory(argmem: readwrite) uwtable
define internal fastcc void @AddRecordHeader(ptr noundef writeonly captures(address_is_null) %0, i32 noundef %1, i8 noundef zeroext %2, ptr noundef readonly captures(none) %3) unnamed_addr #9 {
  %5 = icmp eq ptr %0, null
  br i1 %5, label %26, label %6

6:                                                ; preds = %4
  store i8 %2, ptr %0, align 1, !tbaa !366
  %7 = getelementptr inbounds nuw i8, ptr %3, i64 710
  %8 = load i8, ptr %7, align 2, !tbaa !3
  %9 = getelementptr inbounds nuw i8, ptr %0, i64 1
  store i8 %8, ptr %9, align 1, !tbaa !365
  %10 = load i16, ptr %7, align 2
  %11 = and i16 %10, 255
  %12 = icmp ne i16 %11, 3
  %13 = icmp ult i16 %10, 1024
  %.not15 = or i1 %13, %12
  %14 = lshr i16 %10, 8
  %15 = trunc nuw i16 %14 to i8
  %.sink = select i1 %.not15, i8 %15, i8 3
  %16 = getelementptr inbounds nuw i8, ptr %0, i64 2
  store i8 %.sink, ptr %16, align 1, !tbaa !367
  %17 = getelementptr inbounds nuw i8, ptr %3, i64 1024
  %18 = load i64, ptr %17, align 8
  %19 = and i64 %18, 131072
  %.not12 = icmp eq i64 %19, 0
  br i1 %.not12, label %20, label %26

20:                                               ; preds = %6
  %21 = getelementptr inbounds nuw i8, ptr %0, i64 3
  %22 = lshr i32 %1, 8
  %23 = trunc i32 %22 to i8
  store i8 %23, ptr %21, align 1, !tbaa !45
  %24 = trunc i32 %1 to i8
  %25 = getelementptr inbounds nuw i8, ptr %0, i64 4
  store i8 %24, ptr %25, align 1, !tbaa !45
  br label %26

26:                                               ; preds = %20, %6, %4
  ret void
}